; Function Attrs: nounwind sspstrong uwtable
define internal noundef i64 @cState_init_copy(i64 noundef returned %0, i64 noundef %1) #0 {
  %3 = icmp eq i64 %0, %1
  br i1 %3, label %26, label %4

4:                                                ; preds = %2
  %5 = tail call ptr @rb_check_typeddata(i64 noundef %0, ptr noundef nonnull @JSON_Generator_State_type) #22
  %6 = tail call ptr @rb_check_typeddata(i64 noundef %1, ptr noundef nonnull @JSON_Generator_State_type) #22
  %.not = icmp eq ptr %5, null
  br i1 %.not, label %7, label %9

7:                                                ; preds = %4
  %8 = load i64, ptr @rb_eArgError, align 8, !tbaa !6
  tail call void (i64, ptr, ...) @rb_raise(i64 noundef %8, ptr noundef nonnull @.str.78) #26
  unreachable

9:                                                ; preds = %4
  tail call void @llvm.memcpy.p0.p0.i64(ptr noundef nonnull align 1 dereferenceable(80) %5, ptr noundef nonnull readonly align 1 dereferenceable(80) %6, i64 noundef range(i64 1, 0) 80, i1 noundef false) #22
  %10 = load i64, ptr %6, align 8, !tbaa !25
  store i64 %10, ptr %5, align 8, !tbaa !25
  %11 = getelementptr inbounds nuw i8, ptr %6, i64 8
  %12 = load i64, ptr %11, align 8, !tbaa !26
  %13 = getelementptr inbounds nuw i8, ptr %5, i64 8
  store i64 %12, ptr %13, align 8, !tbaa !26
  %14 = getelementptr inbounds nuw i8, ptr %6, i64 16
  %15 = load i64, ptr %14, align 8, !tbaa !27
  %16 = getelementptr inbounds nuw i8, ptr %5, i64 16
  store i64 %15, ptr %16, align 8, !tbaa !27
  %17 = getelementptr inbounds nuw i8, ptr %6, i64 24
  %18 = load i64, ptr %17, align 8, !tbaa !28
  %19 = getelementptr inbounds nuw i8, ptr %5, i64 24
  store i64 %18, ptr %19, align 8, !tbaa !28
  %20 = getelementptr inbounds nuw i8, ptr %6, i64 32
  %21 = load i64, ptr %20, align 8, !tbaa !29
  %22 = getelementptr inbounds nuw i8, ptr %5, i64 32
  store i64 %21, ptr %22, align 8, !tbaa !29
  %23 = getelementptr inbounds nuw i8, ptr %6, i64 40
  %24 = load i64, ptr %23, align 8, !tbaa !30
  %25 = getelementptr inbounds nuw i8, ptr %5, i64 40
  store i64 %24, ptr %25, align 8, !tbaa !30
  br label %26

26:                                               ; preds = %2, %9
  ret i64 %0
}